target datalayout = "e-m:e-p270:32:32-p271:32:32-p272:64:64-i64:64-i128:128-f80:128-n8:16:32:64-S128"
target triple = "x86_64-pc-linux-gnu"

%struct.writeoutvar = type { ptr, i32, i32, ptr }
%struct.per_transfer = type { ptr, ptr, ptr, ptr, ptr, i64, i64, i64, i64, %struct.timeval, %struct.timeval, ptr, i32, ptr, i32, %struct.ProgressData, %struct.OutStruct, %struct.OutStruct, %struct.OutStruct, %struct.HdrCbData, i64, i64, i64, i64, i64, i64, i64, i64, i8, i8, ptr, ptr, i8, i8, i8, i8, i8, i8 }
%struct.timeval = type { i64, i64 }
%struct.ProgressData = type { i32, i64, %struct.timeval, i32, ptr, i64, i32, i32, i32 }
%struct.OutStruct = type { ptr, i8, i8, i8, i8, ptr, i64, i64 }
%struct.HdrCbData = type { ptr, ptr, ptr, ptr, ptr, ptr, i8 }
%struct.curl_certinfo = type { i32, ptr }

@.str.83 = private unnamed_addr constant [10 x i8] c"\22%s\22:null\00", align 1
@.str.90 = private unnamed_addr constant [4 x i8] c"%ld\00", align 1
@.str.91 = private unnamed_addr constant [9 x i8] c"\22%s\22:%ld\00", align 1
@.str.92 = private unnamed_addr constant [6 x i8] c"%03ld\00", align 1

; Function Attrs: nounwind uwtable
define internal void @certinfo(ptr noundef %0) #0 {
  %2 = alloca ptr, align 8
  %3 = alloca ptr, align 8
  %4 = alloca i32, align 4
  store ptr %0, ptr %2, align 8, !tbaa !9
  %5 = load ptr, ptr %2, align 8, !tbaa !9
  %6 = getelementptr inbounds nuw %struct.per_transfer, ptr %5, i32 0, i32 3
  %7 = load ptr, ptr %6, align 8, !tbaa !64
  %8 = icmp ne ptr %7, null
  br i1 %8, label %26, label %9

9:                                                ; preds = %1
  call void @llvm.lifetime.start.p0(i64 8, ptr %3) #7
  call void @llvm.lifetime.start.p0(i64 4, ptr %4) #7
  %10 = load ptr, ptr %2, align 8, !tbaa !9
  %11 = getelementptr inbounds nuw %struct.per_transfer, ptr %10, i32 0, i32 4
  %12 = load ptr, ptr %11, align 8, !tbaa !43
  %13 = call i32 (ptr, i32, ...) @curl_easy_getinfo(ptr noundef %12, i32 noundef 4194338, ptr noundef %3)
  store i32 %13, ptr %4, align 4, !tbaa !11
  %14 = load i32, ptr %4, align 4, !tbaa !11
  %15 = icmp ne i32 %14, 0
  br i1 %15, label %21, label %16

16:                                               ; preds = %9
  %17 = load ptr, ptr %3, align 8, !tbaa !81
  %18 = icmp ne ptr %17, null
  br i1 %18, label %19, label %21

19:                                               ; preds = %16
  %20 = load ptr, ptr %3, align 8, !tbaa !81
  br label %22

21:                                               ; preds = %16, %9
  br label %22

22:                                               ; preds = %21, %19
  %23 = phi ptr [ %20, %19 ], [ null, %21 ]
  %24 = load ptr, ptr %2, align 8, !tbaa !9
  %25 = getelementptr inbounds nuw %struct.per_transfer, ptr %24, i32 0, i32 3
  store ptr %23, ptr %25, align 8, !tbaa !64
  call void @llvm.lifetime.end.p0(i64 4, ptr %4) #7
  call void @llvm.lifetime.end.p0(i64 8, ptr %3) #7
  br label %26

26:                                               ; preds = %22, %1
  ret void
}

; Function Attrs: nounwind uwtable
define internal i32 @writeLong(ptr noundef %0, ptr noundef %1, ptr noundef %2, i32 noundef %3, i1 noundef zeroext %4) #0 {
  %6 = alloca ptr, align 8
  %7 = alloca ptr, align 8
  %8 = alloca ptr, align 8
  %9 = alloca i32, align 4
  %10 = alloca i8, align 1
  %11 = alloca i8, align 1
  %12 = alloca i64, align 8
  store ptr %0, ptr %6, align 8, !tbaa !13
  store ptr %1, ptr %7, align 8, !tbaa !34
  store ptr %2, ptr %8, align 8, !tbaa !9
  store i32 %3, ptr %9, align 4, !tbaa !11
  %13 = zext i1 %4 to i8
  store i8 %13, ptr %10, align 1, !tbaa !30
  call void @llvm.lifetime.start.p0(i64 1, ptr %11) #7
  store i8 0, ptr %11, align 1, !tbaa !30
  call void @llvm.lifetime.start.p0(i64 8, ptr %12) #7
  store i64 0, ptr %12, align 8, !tbaa !38
  br label %14

14:                                               ; preds = %5
  br label %15

15:                                               ; preds = %14
  br label %16

16:                                               ; preds = %15
  %17 = load ptr, ptr %7, align 8, !tbaa !34
  %18 = getelementptr inbounds nuw %struct.writeoutvar, ptr %17, i32 0, i32 2
  %19 = load i32, ptr %18, align 4, !tbaa !57
  %20 = icmp ne i32 %19, 0
  br i1 %20, label %21, label %32

21:                                               ; preds = %16
  %22 = load ptr, ptr %8, align 8, !tbaa !9
  %23 = getelementptr inbounds nuw %struct.per_transfer, ptr %22, i32 0, i32 4
  %24 = load ptr, ptr %23, align 8, !tbaa !43
  %25 = load ptr, ptr %7, align 8, !tbaa !34
  %26 = getelementptr inbounds nuw %struct.writeoutvar, ptr %25, i32 0, i32 2
  %27 = load i32, ptr %26, align 4, !tbaa !57
  %28 = call i32 (ptr, i32, ...) @curl_easy_getinfo(ptr noundef %24, i32 noundef %27, ptr noundef %12)
  %29 = icmp ne i32 %28, 0
  br i1 %29, label %31, label %30

30:                                               ; preds = %21
  store i8 1, ptr %11, align 1, !tbaa !30
  br label %31

31:                                               ; preds = %30, %21
  br label %79

32:                                               ; preds = %16
  %33 = load ptr, ptr %7, align 8, !tbaa !34
  %34 = getelementptr inbounds nuw %struct.writeoutvar, ptr %33, i32 0, i32 1
  %35 = load i32, ptr %34, align 8, !tbaa !41
  switch i32 %35, label %74 [
    i32 46, label %36
    i32 43, label %40
    i32 45, label %56
    i32 11, label %60
    i32 70, label %63
  ]

36:                                               ; preds = %32
  %37 = load ptr, ptr %8, align 8, !tbaa !9
  %38 = getelementptr inbounds nuw %struct.per_transfer, ptr %37, i32 0, i32 8
  %39 = load i64, ptr %38, align 8, !tbaa !78
  store i64 %39, ptr %12, align 8, !tbaa !38
  store i8 1, ptr %11, align 1, !tbaa !30
  br label %78

40:                                               ; preds = %32
  %41 = load ptr, ptr %8, align 8, !tbaa !9
  call void @certinfo(ptr noundef %41)
  %42 = load ptr, ptr %8, align 8, !tbaa !9
  %43 = getelementptr inbounds nuw %struct.per_transfer, ptr %42, i32 0, i32 3
  %44 = load ptr, ptr %43, align 8, !tbaa !64
  %45 = icmp ne ptr %44, null
  br i1 %45, label %46, label %52

46:                                               ; preds = %40
  %47 = load ptr, ptr %8, align 8, !tbaa !9
  %48 = getelementptr inbounds nuw %struct.per_transfer, ptr %47, i32 0, i32 3
  %49 = load ptr, ptr %48, align 8, !tbaa !64
  %50 = getelementptr inbounds nuw %struct.curl_certinfo, ptr %49, i32 0, i32 0
  %51 = load i32, ptr %50, align 8, !tbaa !65
  br label %53

52:                                               ; preds = %40
  br label %53

53:                                               ; preds = %52, %46
  %54 = phi i32 [ %51, %46 ], [ 0, %52 ]
  %55 = sext i32 %54 to i64
  store i64 %55, ptr %12, align 8, !tbaa !38
  store i8 1, ptr %11, align 1, !tbaa !30
  br label %78

56:                                               ; preds = %32
  %57 = load ptr, ptr %8, align 8, !tbaa !9
  %58 = getelementptr inbounds nuw %struct.per_transfer, ptr %57, i32 0, i32 20
  %59 = load i64, ptr %58, align 8, !tbaa !79
  store i64 %59, ptr %12, align 8, !tbaa !38
  store i8 1, ptr %11, align 1, !tbaa !30
  br label %78

60:                                               ; preds = %32
  %61 = load i32, ptr %9, align 4, !tbaa !11
  %62 = zext i32 %61 to i64
  store i64 %62, ptr %12, align 8, !tbaa !38
  store i8 1, ptr %11, align 1, !tbaa !30
  br label %78

63:                                               ; preds = %32
  %64 = load ptr, ptr %8, align 8, !tbaa !9
  %65 = getelementptr inbounds nuw %struct.per_transfer, ptr %64, i32 0, i32 12
  %66 = load i32, ptr %65, align 8, !tbaa !80
  %67 = icmp ule i32 %66, 2147483647
  br i1 %67, label %68, label %73

68:                                               ; preds = %63
  %69 = load ptr, ptr %8, align 8, !tbaa !9
  %70 = getelementptr inbounds nuw %struct.per_transfer, ptr %69, i32 0, i32 12
  %71 = load i32, ptr %70, align 8, !tbaa !80
  %72 = zext i32 %71 to i64
  store i64 %72, ptr %12, align 8, !tbaa !38
  store i8 1, ptr %11, align 1, !tbaa !30
  br label %73

73:                                               ; preds = %68, %63
  br label %78

74:                                               ; preds = %32
  br label %75

75:                                               ; preds = %74
  br label %76

76:                                               ; preds = %75
  br label %77

77:                                               ; preds = %76
  br label %78

78:                                               ; preds = %77, %73, %60, %56, %53, %36
  br label %79

79:                                               ; preds = %78, %31
  %80 = load i8, ptr %11, align 1, !tbaa !30, !range !32, !noundef !33
  %81 = trunc i8 %80 to i1
  br i1 %81, label %82, label %112

82:                                               ; preds = %79
  %83 = load i8, ptr %10, align 1, !tbaa !30, !range !32, !noundef !33
  %84 = trunc i8 %83 to i1
  br i1 %84, label %85, label %92

85:                                               ; preds = %82
  %86 = load ptr, ptr %6, align 8, !tbaa !13
  %87 = load ptr, ptr %7, align 8, !tbaa !34
  %88 = getelementptr inbounds nuw %struct.writeoutvar, ptr %87, i32 0, i32 0
  %89 = load ptr, ptr %88, align 8, !tbaa !39
  %90 = load i64, ptr %12, align 8, !tbaa !38
  %91 = call i32 (ptr, ptr, ...) @curl_mfprintf(ptr noundef %86, ptr noundef @.str.91, ptr noundef %89, i64 noundef %90)
  br label %111

92:                                               ; preds = %82
  %93 = load ptr, ptr %7, align 8, !tbaa !34
  %94 = getelementptr inbounds nuw %struct.writeoutvar, ptr %93, i32 0, i32 1
  %95 = load i32, ptr %94, align 8, !tbaa !41
  %96 = icmp eq i32 %95, 15
  br i1 %96, label %102, label %97

97:                                               ; preds = %92
  %98 = load ptr, ptr %7, align 8, !tbaa !34
  %99 = getelementptr inbounds nuw %struct.writeoutvar, ptr %98, i32 0, i32 1
  %100 = load i32, ptr %99, align 8, !tbaa !41
  %101 = icmp eq i32 %100, 16
  br i1 %101, label %102, label %106

102:                                              ; preds = %97, %92
  %103 = load ptr, ptr %6, align 8, !tbaa !13
  %104 = load i64, ptr %12, align 8, !tbaa !38
  %105 = call i32 (ptr, ptr, ...) @curl_mfprintf(ptr noundef %103, ptr noundef @.str.92, i64 noundef %104)
  br label %110

106:                                              ; preds = %97
  %107 = load ptr, ptr %6, align 8, !tbaa !13
  %108 = load i64, ptr %12, align 8, !tbaa !38
  %109 = call i32 (ptr, ptr, ...) @curl_mfprintf(ptr noundef %107, ptr noundef @.str.90, i64 noundef %108)
  br label %110

110:                                              ; preds = %106, %102
  br label %111

111:                                              ; preds = %110, %85
  br label %122

112:                                              ; preds = %79
  %113 = load i8, ptr %10, align 1, !tbaa !30, !range !32, !noundef !33
  %114 = trunc i8 %113 to i1
  br i1 %114, label %115, label %121

115:                                              ; preds = %112
  %116 = load ptr, ptr %6, align 8, !tbaa !13
  %117 = load ptr, ptr %7, align 8, !tbaa !34
  %118 = getelementptr inbounds nuw %struct.writeoutvar, ptr %117, i32 0, i32 0
  %119 = load ptr, ptr %118, align 8, !tbaa !39
  %120 = call i32 (ptr, ptr, ...) @curl_mfprintf(ptr noundef %116, ptr noundef @.str.83, ptr noundef %119)
  br label %121

121:                                              ; preds = %115, %112
  br label %122

122:                                              ; preds = %121, %111
  call void @llvm.lifetime.end.p0(i64 8, ptr %12) #7
  call void @llvm.lifetime.end.p0(i64 1, ptr %11) #7
  ret i32 1
}