; Function Attrs: nounwind uwtable
define internal noundef i32 @writeLong(ptr noundef %0, ptr noundef readonly captures(none) %1, ptr noundef captures(none) %2, i32 noundef %3, i1 noundef zeroext %4) #0 {
  %6 = alloca ptr, align 8
  %7 = alloca i64, align 8
  call void @llvm.lifetime.start.p0(i64 8, ptr nonnull %7) #7
  store i64 0, ptr %7, align 8, !tbaa !48
  %8 = getelementptr inbounds nuw i8, ptr %1, i64 12
  %9 = load i32, ptr %8, align 4, !tbaa !47
  %.not = icmp eq i32 %9, 0
  br i1 %.not, label %14, label %10

10:                                               ; preds = %5
  %11 = getelementptr inbounds nuw i8, ptr %2, i64 32
  %12 = load ptr, ptr %11, align 8, !tbaa !32
  %13 = call i32 (ptr, i32, ...) @curl_easy_getinfo(ptr noundef %12, i32 noundef %9, ptr noundef nonnull %7) #7
  %.not27 = icmp eq i32 %13, 0
  br i1 %.not27, label %.critedge29, label %.critedge

14:                                               ; preds = %5
  %15 = getelementptr inbounds nuw i8, ptr %1, i64 8
  %16 = load i32, ptr %15, align 8, !tbaa !30
  switch i32 %16, label %.critedge [
    i32 46, label %17
    i32 43, label %20
    i32 45, label %32
    i32 11, label %35
    i32 70, label %37
  ]

17:                                               ; preds = %14
  %18 = getelementptr inbounds nuw i8, ptr %2, i64 64
  %19 = load i64, ptr %18, align 8, !tbaa !66
  br label %.critedge29.sink.split

20:                                               ; preds = %14
  %21 = getelementptr inbounds nuw i8, ptr %2, i64 24
  %22 = load ptr, ptr %21, align 8, !tbaa !53
  %.not.i = icmp eq ptr %22, null
  br i1 %.not.i, label %certinfo.exit, label %certinfo.exit.thread

certinfo.exit:                                    ; preds = %20
  call void @llvm.lifetime.start.p0(i64 8, ptr nonnull %6) #7
  %23 = getelementptr inbounds nuw i8, ptr %2, i64 32
  %24 = load ptr, ptr %23, align 8, !tbaa !32
  %25 = call i32 (ptr, i32, ...) @curl_easy_getinfo(ptr noundef %24, i32 noundef 4194338, ptr noundef nonnull %6) #7
  %26 = icmp eq i32 %25, 0
  %27 = load ptr, ptr %6, align 8
  %28 = select i1 %26, ptr %27, ptr null
  store ptr %28, ptr %21, align 8, !tbaa !53
  call void @llvm.lifetime.end.p0(i64 8, ptr nonnull %6) #7
  %.not26 = icmp eq ptr %28, null
  br i1 %.not26, label %.critedge29.sink.split, label %certinfo.exit.thread

certinfo.exit.thread:                             ; preds = %20, %certinfo.exit
  %29 = phi ptr [ %27, %certinfo.exit ], [ %22, %20 ]
  %30 = load i32, ptr %29, align 8, !tbaa !54
  %31 = sext i32 %30 to i64
  br label %.critedge29.sink.split

32:                                               ; preds = %14
  %33 = getelementptr inbounds nuw i8, ptr %2, i64 384
  %34 = load i64, ptr %33, align 8, !tbaa !67
  br label %.critedge29.sink.split

35:                                               ; preds = %14
  %36 = zext i32 %3 to i64
  br label %.critedge29.sink.split

37:                                               ; preds = %14
  %38 = getelementptr inbounds nuw i8, ptr %2, i64 112
  %39 = load i32, ptr %38, align 8, !tbaa !68
  %40 = icmp sgt i32 %39, -1
  br i1 %40, label %41, label %.critedge

41:                                               ; preds = %37
  %42 = zext nneg i32 %39 to i64
  br label %.critedge29.sink.split

.critedge29.sink.split:                           ; preds = %certinfo.exit.thread, %certinfo.exit, %17, %32, %35, %41
  %.sink = phi i64 [ %42, %41 ], [ %36, %35 ], [ %34, %32 ], [ %19, %17 ], [ %31, %certinfo.exit.thread ], [ 0, %certinfo.exit ]
  store i64 %.sink, ptr %7, align 8, !tbaa !48
  br label %.critedge29

.critedge29:                                      ; preds = %.critedge29.sink.split, %10
  br i1 %4, label %43, label %47

43:                                               ; preds = %.critedge29
  %44 = load ptr, ptr %1, align 8, !tbaa !26
  %45 = load i64, ptr %7, align 8, !tbaa !48
  %46 = call i32 (ptr, ptr, ...) @curl_mfprintf(ptr noundef %0, ptr noundef nonnull @.str.91, ptr noundef %44, i64 noundef %45) #7
  br label %58

47:                                               ; preds = %.critedge29
  %48 = getelementptr inbounds nuw i8, ptr %1, i64 8
  %49 = load i32, ptr %48, align 8, !tbaa !30
  %.off = add i32 %49, -15
  %switch = icmp ult i32 %.off, 2
  %50 = load i64, ptr %7, align 8, !tbaa !48
  br i1 %switch, label %51, label %53

51:                                               ; preds = %47
  %52 = call i32 (ptr, ptr, ...) @curl_mfprintf(ptr noundef %0, ptr noundef nonnull @.str.92, i64 noundef %50) #7
  br label %58

53:                                               ; preds = %47
  %54 = call i32 (ptr, ptr, ...) @curl_mfprintf(ptr noundef %0, ptr noundef nonnull @.str.90, i64 noundef %50) #7
  br label %58

.critedge:                                        ; preds = %14, %37, %10
  br i1 %4, label %55, label %58

55:                                               ; preds = %.critedge
  %56 = load ptr, ptr %1, align 8, !tbaa !26
  %57 = call i32 (ptr, ptr, ...) @curl_mfprintf(ptr noundef %0, ptr noundef nonnull @.str.83, ptr noundef %56) #7
  br label %58

58:                                               ; preds = %.critedge, %55, %43, %53, %51
  call void @llvm.lifetime.end.p0(i64 8, ptr nonnull %7) #7
  ret i32 1
}